target datalayout = "e-m:e-p270:32:32-p271:32:32-p272:64:64-i64:64-i128:128-f80:128-n8:16:32:64-S128"
target triple = "x86_64-pc-linux-gnu"

%struct.AVFilterFormats = type { i32, ptr, i32, ptr }

; Function Attrs: nounwind uwtable
define ptr @ff_make_format_list(ptr noundef %0) #0 {
  %2 = alloca ptr, align 8
  %3 = alloca ptr, align 8
  %4 = alloca ptr, align 8
  %5 = alloca i32, align 4
  %6 = alloca i32, align 4
  store ptr %0, ptr %3, align 8, !tbaa !22
  call void @llvm.lifetime.start.p0(i64 8, ptr %4) #7
  call void @llvm.lifetime.start.p0(i64 4, ptr %5) #7
  store i32 0, ptr %5, align 4, !tbaa !21
  %7 = load ptr, ptr %3, align 8, !tbaa !22
  %8 = icmp ne ptr %7, null
  br i1 %8, label %9, label %22

9:                                                ; preds = %1
  store i32 0, ptr %5, align 4, !tbaa !21
  br label %10

10:                                               ; preds = %18, %9
  %11 = load ptr, ptr %3, align 8, !tbaa !22
  %12 = load i32, ptr %5, align 4, !tbaa !21
  %13 = sext i32 %12 to i64
  %14 = getelementptr inbounds i32, ptr %11, i64 %13
  %15 = load i32, ptr %14, align 4, !tbaa !21
  %16 = icmp ne i32 %15, -1
  br i1 %16, label %17, label %21

17:                                               ; preds = %10
  br label %18

18:                                               ; preds = %17
  %19 = load i32, ptr %5, align 4, !tbaa !21
  %20 = add nsw i32 %19, 1
  store i32 %20, ptr %5, align 4, !tbaa !21
  br label %10, !llvm.loop !26

21:                                               ; preds = %10
  br label %22

22:                                               ; preds = %21, %1
  %23 = call noalias ptr @av_mallocz(i64 noundef 32)
  store ptr %23, ptr %4, align 8, !tbaa !27
  %24 = load ptr, ptr %4, align 8, !tbaa !27
  %25 = icmp ne ptr %24, null
  br i1 %25, label %27, label %26

26:                                               ; preds = %22
  store ptr null, ptr %2, align 8
  store i32 1, ptr %6, align 4
  br label %64

27:                                               ; preds = %22
  %28 = load i32, ptr %5, align 4, !tbaa !21
  %29 = load ptr, ptr %4, align 8, !tbaa !27
  %30 = getelementptr inbounds nuw %struct.AVFilterFormats, ptr %29, i32 0, i32 0
  store i32 %28, ptr %30, align 8, !tbaa !28
  %31 = load i32, ptr %5, align 4, !tbaa !21
  %32 = icmp ne i32 %31, 0
  br i1 %32, label %33, label %45

33:                                               ; preds = %27
  %34 = load i32, ptr %5, align 4, !tbaa !21
  %35 = sext i32 %34 to i64
  %36 = call ptr @av_malloc_array(i64 noundef %35, i64 noundef 4)
  %37 = load ptr, ptr %4, align 8, !tbaa !27
  %38 = getelementptr inbounds nuw %struct.AVFilterFormats, ptr %37, i32 0, i32 1
  store ptr %36, ptr %38, align 8, !tbaa !32
  %39 = load ptr, ptr %4, align 8, !tbaa !27
  %40 = getelementptr inbounds nuw %struct.AVFilterFormats, ptr %39, i32 0, i32 1
  %41 = load ptr, ptr %40, align 8, !tbaa !32
  %42 = icmp ne ptr %41, null
  br i1 %42, label %44, label %43

43:                                               ; preds = %33
  call void @av_freep(ptr noundef %4)
  store ptr null, ptr %2, align 8
  store i32 1, ptr %6, align 4
  br label %64

44:                                               ; preds = %33
  br label %45

45:                                               ; preds = %44, %27
  br label %46

46:                                               ; preds = %50, %45
  %47 = load i32, ptr %5, align 4, !tbaa !21
  %48 = add nsw i32 %47, -1
  store i32 %48, ptr %5, align 4, !tbaa !21
  %49 = icmp ne i32 %47, 0
  br i1 %49, label %50, label %62

50:                                               ; preds = %46
  %51 = load ptr, ptr %3, align 8, !tbaa !22
  %52 = load i32, ptr %5, align 4, !tbaa !21
  %53 = sext i32 %52 to i64
  %54 = getelementptr inbounds i32, ptr %51, i64 %53
  %55 = load i32, ptr %54, align 4, !tbaa !21
  %56 = load ptr, ptr %4, align 8, !tbaa !27
  %57 = getelementptr inbounds nuw %struct.AVFilterFormats, ptr %56, i32 0, i32 1
  %58 = load ptr, ptr %57, align 8, !tbaa !32
  %59 = load i32, ptr %5, align 4, !tbaa !21
  %60 = sext i32 %59 to i64
  %61 = getelementptr inbounds i32, ptr %58, i64 %60
  store i32 %55, ptr %61, align 4, !tbaa !21
  br label %46, !llvm.loop !33

62:                                               ; preds = %46
  %63 = load ptr, ptr %4, align 8, !tbaa !27
  store ptr %63, ptr %2, align 8
  store i32 1, ptr %6, align 4
  br label %64

64:                                               ; preds = %62, %43, %26
  call void @llvm.lifetime.end.p0(i64 4, ptr %5) #7
  call void @llvm.lifetime.end.p0(i64 8, ptr %4) #7
  %65 = load ptr, ptr %2, align 8
  ret ptr %65
}