; Function Attrs: nounwind uwtable
define ptr @ff_make_format_list(ptr noundef readonly captures(address_is_null) %0) local_unnamed_addr #3 {
  %2 = alloca ptr, align 8
  call void @llvm.lifetime.start.p0(i64 8, ptr nonnull %2) #10
  %.not = icmp eq ptr %0, null
  br i1 %.not, label %.loopexit, label %.preheader

.preheader:                                       ; preds = %1, %.preheader
  %indvars.iv = phi i64 [ %indvars.iv.next, %.preheader ], [ 0, %1 ]
  %3 = getelementptr inbounds nuw i32, ptr %0, i64 %indvars.iv
  %4 = load i32, ptr %3, align 4, !tbaa !19
  %.not14 = icmp eq i32 %4, -1
  %indvars.iv.next = add nuw nsw i64 %indvars.iv, 1
  br i1 %.not14, label %.loopexit.loopexit, label %.preheader, !llvm.loop !22

.loopexit.loopexit:                               ; preds = %.preheader
  %5 = trunc nuw nsw i64 %indvars.iv to i32
  br label %.loopexit

.loopexit:                                        ; preds = %.loopexit.loopexit, %1
  %.0 = phi i32 [ 0, %1 ], [ %5, %.loopexit.loopexit ]
  %6 = tail call noalias ptr @av_mallocz(i64 noundef 32) #10
  store ptr %6, ptr %2, align 8, !tbaa !23
  %.not15 = icmp eq ptr %6, null
  br i1 %.not15, label %._crit_edge, label %7

7:                                                ; preds = %.loopexit
  store i32 %.0, ptr %6, align 8, !tbaa !24
  %cond = icmp eq i32 %.0, 0
  br i1 %cond, label %._crit_edge, label %8

8:                                                ; preds = %7
  %9 = zext nneg i32 %.0 to i64
  %10 = tail call ptr @av_malloc_array(i64 noundef %9, i64 noundef 4) #10
  %11 = getelementptr inbounds nuw i8, ptr %6, i64 8
  store ptr %10, ptr %11, align 8, !tbaa !29
  %.not17 = icmp eq ptr %10, null
  br i1 %.not17, label %12, label %.lr.ph

12:                                               ; preds = %8
  call void @av_freep(ptr noundef nonnull %2) #10
  br label %._crit_edge

.lr.ph:                                           ; preds = %8, %.lr.ph
  %indvars.iv23 = phi i64 [ %indvars.iv.next24, %.lr.ph ], [ %9, %8 ]
  %indvars.iv.next24 = add nsw i64 %indvars.iv23, -1
  %13 = getelementptr inbounds i32, ptr %0, i64 %indvars.iv.next24
  %14 = load i32, ptr %13, align 4, !tbaa !19
  %15 = getelementptr inbounds i32, ptr %10, i64 %indvars.iv.next24
  store i32 %14, ptr %15, align 4, !tbaa !19
  %16 = icmp eq i64 %indvars.iv.next24, 0
  br i1 %16, label %._crit_edge, label %.lr.ph, !llvm.loop !30

._crit_edge:                                      ; preds = %.lr.ph, %7, %.loopexit, %12
  %.011 = phi ptr [ null, %12 ], [ null, %.loopexit ], [ %6, %7 ], [ %6, %.lr.ph ]
  call void @llvm.lifetime.end.p0(i64 8, ptr nonnull %2) #10
  ret ptr %.011
}